target datalayout = "e-m:e-p270:32:32-p271:32:32-p272:64:64-i64:64-i128:128-f80:128-n8:16:32:64-S128"
target triple = "x86_64-pc-linux-gnu"

; Function Attrs: mustprogress nounwind uwtable
define noundef zeroext i16 @_ZN5boost4urls12default_portENS0_6schemeE(i16 noundef zeroext %0) #0 {
  %2 = alloca i16, align 2
  %3 = alloca i16, align 2
  store i16 %0, ptr %3, align 2, !tbaa !13
  %4 = load i16, ptr %3, align 2, !tbaa !13
  switch i16 %4, label %8 [
    i16 2, label %5
    i16 4, label %6
    i16 6, label %6
    i16 5, label %7
    i16 7, label %7
  ]

5:                                                ; preds = %1
  store i16 21, ptr %2, align 2
  br label %10

6:                                                ; preds = %1, %1
  store i16 80, ptr %2, align 2
  br label %10

7:                                                ; preds = %1, %1
  store i16 443, ptr %2, align 2
  br label %10

8:                                                ; preds = %1
  br label %9

9:                                                ; preds = %8
  store i16 0, ptr %2, align 2
  br label %10

10:                                               ; preds = %9, %7, %6, %5
  %11 = load i16, ptr %2, align 2
  ret i16 %11
}