; Function Attrs: mustprogress nofree norecurse nosync nounwind willreturn memory(none) uwtable
define noundef zeroext range(i16 0, 444) i16 @_ZN5boost4urls12default_portENS0_6schemeE(i16 noundef zeroext %0) local_unnamed_addr #1 {
  %switch.tableidx = add i16 %0, -2
  %2 = icmp ult i16 %switch.tableidx, 6
  br i1 %2, label %switch.lookup, label %4

switch.lookup:                                    ; preds = %1
  %3 = zext nneg i16 %switch.tableidx to i64
  %switch.gep = getelementptr inbounds [6 x i16], ptr @switch.table._ZN5boost4urls12default_portENS0_6schemeE, i64 0, i64 %3
  %switch.load = load i16, ptr %switch.gep, align 2
  br label %4

4:                                                ; preds = %1, %switch.lookup
  %.0 = phi i16 [ %switch.load, %switch.lookup ], [ 0, %1 ]
  ret i16 %.0
}